; Function Attrs: mustprogress uwtable
define noalias ptr @lean_io_baserecmutex_try_lock(ptr noundef readonly captures(none) %0, ptr noundef readnone captures(none) %1) local_unnamed_addr #0 personality ptr @__gxx_personality_v0 {
  %3 = getelementptr i8, ptr %0, i64 16
  %.val = load ptr, ptr %3, align 8, !tbaa !12
  %4 = tail call noundef i32 @pthread_mutex_trylock(ptr noundef nonnull align 8 dereferenceable(40) %.val) #11
  tail call void @lean_inc_heartbeat()
  %5 = tail call noalias ptr @mi_malloc_small(i64 noundef 24) #11
  %6 = icmp eq ptr %5, null
  br i1 %6, label %7, label %_ZN4lean15io_result_mk_okEP11lean_object.exit

7:                                                ; preds = %2
  tail call void @lean_internal_panic_out_of_memory() #12
  unreachable

_ZN4lean15io_result_mk_okEP11lean_object.exit:    ; preds = %2
  %.not.i = icmp eq i32 %4, 0
  %8 = select i1 %.not.i, ptr inttoptr (i64 3 to ptr), ptr inttoptr (i64 1 to ptr)
  %9 = getelementptr inbounds nuw i8, ptr %5, i64 4
  store i32 1, ptr %5, align 4, !tbaa !7
  store i32 131096, ptr %9, align 4
  %10 = getelementptr inbounds nuw i8, ptr %5, i64 8
  store ptr %8, ptr %10, align 8, !tbaa !3
  %11 = getelementptr inbounds nuw i8, ptr %5, i64 16
  store ptr inttoptr (i64 1 to ptr), ptr %11, align 8, !tbaa !3
  ret ptr %5
}